Certificate:
    Data:
        Version: 3 (0x2)
        Serial Number: 4 (0x4)
        Signature Algorithm: sha1WithRSAEncryption
        Issuer: C=BA, ST=RS, O=Elektrotehnicki fakultet, OU=CA_MarkoMarkovic, CN=ca/emailAddress=ca
        Validity
            Not Before: Feb 15 11:48:49 2021 GMT
            Not After : Feb 25 11:48:49 2021 GMT
        Subject: C=BA, ST=RS, O=Elektrotehnicki fakultet, OU=CA_MarkoMarkovic, CN=aa/emailAddress=aa
        Subject Public Key Info:
            Public Key Algorithm: rsaEncryption
                RSA Public-Key: (2048 bit)
                Modulus:
                    00:b5:ce:e2:3c:75:e5:cc:01:6f:8b:20:04:1a:f8:
                    0b:3e:6b:88:b8:22:db:7b:62:25:93:07:68:79:94:
                    48:24:ee:df:48:53:05:55:c8:33:71:42:9e:b7:9b:
                    7e:9a:f4:16:8d:27:0c:7f:23:d2:fb:1a:a6:dd:ad:
                    27:f4:7c:55:0f:b1:b0:c7:6c:b5:34:86:64:4d:db:
                    93:47:08:bd:5c:df:bb:1a:df:e5:aa:16:1d:12:0d:
                    23:8f:4e:96:dd:73:36:d9:74:48:97:16:ed:d4:62:
                    13:34:d2:1a:b3:a4:a2:da:d6:fe:8e:b3:83:81:fe:
                    95:91:90:5a:1f:33:75:ae:4c:86:5e:d2:26:77:c0:
                    76:64:43:ad:75:c9:b5:f2:3e:a1:ee:ce:e7:04:9c:
                    53:69:83:21:78:46:13:c6:9e:75:ea:dd:33:58:6d:
                    53:aa:ec:77:4f:14:18:54:5a:fe:a6:bf:fb:e4:c3:
                    a9:83:f8:6a:fd:f3:9b:4e:24:d9:42:dd:cb:ac:4e:
                    67:58:f8:8a:de:a3:48:95:45:75:45:6e:46:38:02:
                    9d:fc:74:ea:e4:e5:5f:ab:b2:fd:2c:a4:ff:56:17:
                    51:2e:6d:fb:3a:3a:3b:6a:42:26:8b:d9:ca:c2:a7:
                    eb:ba:fd:e1:9e:0b:f2:8a:ab:6f:d8:b4:2d:18:eb:
                    f7:5d
                Exponent: 65537 (0x10001)
        X509v3 extensions:
            X509v3 Basic Constraints: 
                CA:FALSE
            X509v3 Key Usage: 
                Digital Signature
            X509v3 Extended Key Usage: 
                TLS Web Client Authentication
            Netscape Comment: 
                OpenSSL Generated Certificate
            X509v3 Subject Key Identifier: 
                CC:04:44:39:9E:0E:0B:71:8C:79:9C:2E:84:7B:45:32:45:97:65:34
            X509v3 Authority Key Identifier: 
                keyid:63:8A:E9:31:D7:E2:3C:A7:2D:2A:33:AB:F3:97:8C:9A:CA:3E:8B:8F

            X509v3 CRL Distribution Points: 

                Full Name:
                  URI:http://192.168.21.89/rootcrl.pem

    Signature Algorithm: sha1WithRSAEncryption
         61:af:a1:be:e5:16:f4:91:5d:d7:95:0a:ab:08:08:9d:de:a9:
         95:24:ac:b2:e4:1a:d4:7d:b2:94:34:fb:ec:02:e9:84:e5:4a:
         05:27:a8:c5:16:bd:7a:1b:eb:53:3a:11:a5:c9:66:8a:d2:66:
         58:f0:34:8f:db:da:a6:fe:6b:1d:7e:59:d4:45:a1:b9:5e:6c:
         47:29:c8:c0:a9:50:5f:3a:44:04:c3:15:bf:f3:7b:74:ac:24:
         9c:3c:2c:fc:9c:c4:14:27:91:95:3f:3a:54:ea:e4:94:a8:27:
         7a:1e:ea:c6:2f:c0:46:5f:46:6b:15:7c:f4:fa:ce:60:6d:a7:
         7a:0b:c8:13:1e:3e:aa:12:d2:d0:e8:2e:69:74:6b:f1:ff:f4:
         1a:ae:d3:da:7b:ff:ff:9f:45:53:26:42:0f:e7:80:07:70:33:
         02:bc:de:ad:33:30:9b:7a:96:65:7b:2f:25:79:5f:23:ea:9f:
         22:4c:2f:92:2f:7e:18:45:d6:e5:2b:7f:d0:44:a5:9c:80:ae:
         fa:4a:b5:10:fd:98:70:7f:41:bf:04:39:a2:b3:b4:79:8a:28:
         fd:d9:13:cd:3c:23:ae:dc:3c:af:38:a0:5c:45:83:4c:71:3b:
         bf:b0:1f:ec:53:97:42:ca:ff:73:61:92:bd:fc:a1:38:fb:b3:
         ce:c2:2e:6f:34:b2:92:2a:ee:fa:bc:3b:6f:b2:76:14:5e:e6:
         91:15:ec:6c:a0:83:b9:1e:a5:62:32:b4:1e:13:b7:22:ae:43:
         c1:74:3e:36:30:10:ff:ba:0f:06:b2:21:a6:0d:c1:05:61:b0:
         41:eb:b3:75:82:f3:a4:dd:fa:ac:37:80:97:86:12:ea:a0:0a:
         b6:e6:ca:8f:23:37:5d:a8:c4:21:18:27:48:02:15:ec:2d:39:
         b8:96:ca:dc:cd:19:6f:66:14:f9:8c:6e:5b:d3:cf:3b:b0:42:
         1a:9e:a7:96:13:6d:06:28:04:bb:2d:09:56:1f:21:a6:ea:fc:
         de:96:d6:4d:c6:58:74:7a:85:2a:de:42:46:e2:86:27:ae:85:
         13:87:7b:d5:37:24:45:59:c6:ce:79:9a:4e:64:d4:bc:11:b3:
         5e:a9:45:59:b8:02:aa:c7:4c:7a:cb:14:65:c8:92:04:0b:0d:
         eb:29:42:a1:a1:07:27:72:97:f4:05:a9:76:97:74:a9:22:64:
         da:38:06:80:e2:30:52:c4:c2:6e:7f:fd:5f:3d:c7:c9:ab:14:
         b3:8d:28:e6:1a:ea:dc:2d:1a:83:df:00:44:22:81:8c:24:bb:
         49:5b:34:51:89:25:a9:e4:de:50:38:51:9c:15:13:7c:94:88:
         28:bf:5c:63:54:df:81:a2
-----BEGIN CERTIFICATE-----
MIIFPTCCAyWgAwIBAgIBBDANBgkqhkiG9w0BAQUFADB4MQswCQYDVQQGEwJCQTEL
MAkGA1UECBMCUlMxITAfBgNVBAoTGEVsZWt0cm90ZWhuaWNraSBmYWt1bHRldDEZ
MBcGA1UECxQQQ0FfTWFya29NYXJrb3ZpYzELMAkGA1UEAxMCY2ExETAPBgkqhkiG
9w0BCQEWAmNhMB4XDTIxMDIxNTExNDg0OVoXDTIxMDIyNTExNDg0OVoweDELMAkG
A1UEBhMCQkExCzAJBgNVBAgTAlJTMSEwHwYDVQQKExhFbGVrdHJvdGVobmlja2kg
ZmFrdWx0ZXQxGTAXBgNVBAsUEENBX01hcmtvTWFya292aWMxCzAJBgNVBAMTAmFh
MREwDwYJKoZIhvcNAQkBFgJhYTCCASIwDQYJKoZIhvcNAQEBBQADggEPADCCAQoC
ggEBALXO4jx15cwBb4sgBBr4Cz5riLgi23tiJZMHaHmUSCTu30hTBVXIM3FCnreb
fpr0Fo0nDH8j0vsapt2tJ/R8VQ+xsMdstTSGZE3bk0cIvVzfuxrf5aoWHRINI49O
lt1zNtl0SJcW7dRiEzTSGrOkotrW/o6zg4H+lZGQWh8zda5Mhl7SJnfAdmRDrXXJ
tfI+oe7O5wScU2mDIXhGE8aederdM1htU6rsd08UGFRa/qa/++TDqYP4av3zm04k
2ULdy6xOZ1j4it6jSJVFdUVuRjgCnfx06uTlX6uy/Syk/1YXUS5t+zo6O2pCJovZ
ysKn67r94Z4L8oqrb9i0LRjr910CAwEAAaOB0TCBzjAJBgNVHRMEAjAAMAsGA1Ud
DwQEAwIHgDATBgNVHSUEDDAKBggrBgEFBQcDAjAsBglghkgBhvhCAQ0EHxYdT3Bl
blNTTCBHZW5lcmF0ZWQgQ2VydGlmaWNhdGUwHQYDVR0OBBYEFMwERDmeDgtxjHmc
LoR7RTJFl2U0MB8GA1UdIwQYMBaAFGOK6THX4jynLSozq/OXjJrKPouPMDEGA1Ud
HwQqMCgwJqAkoCKGIGh0dHA6Ly8xOTIuMTY4LjIxLjg5L3Jvb3RjcmwucGVtMA0G
CSqGSIb3DQEBBQUAA4ICAQBhr6G+5Rb0kV3XlQqrCAid3qmVJKyy5BrUfbKUNPvs
AumE5UoFJ6jFFr16G+tTOhGlyWaK0mZY8DSP29qm/msdflnURaG5XmxHKcjAqVBf
OkQEwxW/83t0rCScPCz8nMQUJ5GVPzpU6uSUqCd6HurGL8BGX0ZrFXz0+s5gbad6
C8gTHj6qEtLQ6C5pdGvx//QartPae///n0VTJkIP54AHcDMCvN6tMzCbepZley8l
eV8j6p8iTC+SL34YRdblK3/QRKWcgK76SrUQ/Zhwf0G/BDmis7R5iij92RPNPCOu
3DyvOKBcRYNMcTu/sB/sU5dCyv9zYZK9/KE4+7POwi5vNLKSKu76vDtvsnYUXuaR
FexsoIO5HqViMrQeE7cirkPBdD42MBD/ug8GsiGmDcEFYbBB67N1gvOk3fqsN4CX
hhLqoAq25sqPIzddqMQhGCdIAhXsLTm4lsrczRlvZhT5jG5b0887sEIanqeWE20G
KAS7LQlWHyGm6vzeltZNxlh0eoUq3kJG4oYnroUTh3vVNyRFWcbOeZpOZNS8EbNe
qUVZuAKqx0x6yxRlyJIECw3rKUKhoQcncpf0Bal2l3SpImTaOAaA4jBSxMJuf/1f
PcfJqxSzjSjmGurcLRqD3wBEIoGMJLtJWzRRiSWp5N5QOFGcFRN8lIgov1xjVN+B
og==
-----END CERTIFICATE-----
