Certificate:
    Data:
        Version: 3 (0x2)
        Serial Number: 2 (0x2)
        Signature Algorithm: sha1WithRSAEncryption
        Issuer: C=BA, ST=RS, O=Elektrotehnicki fakultet, OU=CA_MarkoMarkovic, CN=ca/emailAddress=ca
        Validity
            Not Before: Feb 15 11:37:53 2021 GMT
            Not After : Feb 25 11:37:53 2021 GMT
        Subject: C=BA, ST=RS, O=Elektrotehnicki fakultet, OU=CA_MarkoMarkovic, CN=marko/emailAddress=marko
        Subject Public Key Info:
            Public Key Algorithm: rsaEncryption
                RSA Public-Key: (2048 bit)
                Modulus:
                    00:d7:80:1b:07:39:b5:78:1b:bb:60:b1:fa:0e:21:
                    cc:c7:b4:59:83:64:dd:09:86:9b:64:44:64:92:45:
                    ca:cc:89:98:1f:d7:8a:41:0e:dc:c8:fa:7f:54:20:
                    57:7c:01:5b:cf:e5:76:7e:45:c5:55:02:c8:78:9f:
                    79:82:7e:de:37:66:f4:57:00:1b:69:2a:61:91:99:
                    03:fa:40:4d:88:0e:1c:9a:9e:51:36:71:c0:f0:09:
                    f8:34:25:a0:e5:21:44:40:70:ab:a5:db:d6:04:a5:
                    a5:0e:b2:7f:4c:1c:85:4a:69:97:7d:0b:b9:b2:7f:
                    08:7f:76:c0:50:46:85:1b:2d:56:8a:99:1e:23:8e:
                    06:f0:74:f8:d1:49:65:98:44:f5:9f:79:28:14:6f:
                    0e:0b:12:3e:2b:d2:1a:59:dd:f4:52:96:82:12:c4:
                    79:c9:5e:11:c2:ab:57:d3:4a:54:b0:f4:84:d1:39:
                    f7:cb:74:55:79:e0:60:3f:34:51:2b:11:10:f4:bf:
                    ae:55:5d:08:13:7a:a9:bd:1c:4a:8b:3c:1f:41:b4:
                    be:73:51:b7:90:15:3a:b5:aa:7a:5b:8a:9c:1f:16:
                    67:49:c9:40:a5:50:30:85:e4:d1:1b:8d:92:9c:a0:
                    1a:31:e3:9f:1c:6a:aa:41:73:46:6e:e1:7d:5f:29:
                    0e:1f
                Exponent: 65537 (0x10001)
        X509v3 extensions:
            X509v3 Basic Constraints: 
                CA:FALSE
            X509v3 Key Usage: 
                Digital Signature
            X509v3 Extended Key Usage: 
                TLS Web Client Authentication
            Netscape Comment: 
                OpenSSL Generated Certificate
            X509v3 Subject Key Identifier: 
                62:D1:55:F6:10:D4:D3:B6:54:4E:F6:1C:C9:ED:6C:00:91:37:16:D7
            X509v3 Authority Key Identifier: 
                keyid:63:8A:E9:31:D7:E2:3C:A7:2D:2A:33:AB:F3:97:8C:9A:CA:3E:8B:8F

            X509v3 CRL Distribution Points: 

                Full Name:
                  URI:http://192.168.21.89/rootcrl.pem

    Signature Algorithm: sha1WithRSAEncryption
         10:0c:f7:08:45:e3:8f:a5:15:96:04:54:12:75:11:a3:6b:f3:
         29:f5:2e:11:95:e5:ad:39:70:e2:49:88:a4:9b:16:a3:5a:ae:
         b0:94:97:dc:0e:a5:22:97:5d:13:5d:74:2e:71:92:09:b9:27:
         4a:32:a1:c6:43:40:49:ce:4f:a9:5c:c1:aa:5e:71:e7:ec:97:
         1b:36:ff:64:37:cb:52:8a:cc:e8:17:42:8d:0a:61:5e:98:13:
         b3:88:91:e8:3b:c1:33:d0:3d:b0:e0:fe:30:1d:14:94:01:cc:
         b5:aa:75:bc:51:43:03:f8:01:d7:29:7f:c5:6d:c3:49:2a:66:
         d6:87:03:64:9c:51:69:e8:e2:ff:0a:05:8d:27:c8:89:0d:77:
         49:6b:7f:b3:b8:e8:6e:1c:0a:6e:9b:f0:fa:51:a7:53:87:21:
         d2:5b:33:25:0f:b9:c3:c2:24:f1:92:af:2c:a5:36:b7:cf:f9:
         76:fa:58:12:8f:59:c1:81:19:c2:10:b8:f6:0f:d6:96:58:52:
         ee:e9:79:eb:5e:f4:68:54:7f:86:00:a3:7a:77:e6:da:a7:59:
         e3:cf:a5:4a:67:60:59:96:57:65:3c:45:32:d9:61:40:ca:8e:
         b1:ab:6e:d2:1b:bf:43:b9:31:c4:73:63:1d:e6:1c:55:94:70:
         69:75:8d:9a:f1:0b:1b:ce:77:77:ed:3a:95:d4:3e:56:a6:27:
         4d:24:26:02:cb:87:4a:02:7c:a9:3d:03:37:a3:b3:3c:7e:8d:
         f6:93:d3:57:6c:31:4b:c8:21:0d:4a:41:3e:0b:c9:cf:11:eb:
         f4:79:45:c5:3b:b2:e8:66:b3:f2:26:1e:ab:87:33:26:07:a3:
         c5:fa:58:01:d7:e0:d6:2f:4f:27:46:22:94:15:11:ac:47:8b:
         02:28:f5:16:94:dc:01:b4:5d:75:ec:59:4f:8f:b8:be:d8:20:
         a2:f7:73:32:d0:0b:3d:f6:3f:5d:0e:de:7a:9e:4a:82:33:f4:
         e5:85:6e:f8:15:69:e3:7a:3c:0b:32:e8:9f:bb:57:b8:b5:c4:
         bf:33:81:ee:22:bb:1d:1d:c3:76:86:7a:b4:54:5f:8a:37:1b:
         00:46:49:75:93:58:e3:27:c4:aa:b6:1f:c9:27:2a:2e:99:ec:
         b9:d3:6d:bc:60:4f:58:fd:73:74:3c:89:d3:53:7d:38:50:23:
         f4:d3:c1:7d:e6:c4:72:df:ed:cd:48:da:ce:22:57:c5:1f:f8:
         3a:65:13:a8:ca:55:e8:c5:2a:65:df:ae:26:db:0c:dc:93:2f:
         13:02:cd:3e:e4:11:10:65:de:b0:cd:c8:4b:74:e3:e8:3a:9e:
         68:39:c8:f6:e6:fc:6d:6d
-----BEGIN CERTIFICATE-----
MIIFQzCCAyugAwIBAgIBAjANBgkqhkiG9w0BAQUFADB4MQswCQYDVQQGEwJCQTEL
MAkGA1UECBMCUlMxITAfBgNVBAoTGEVsZWt0cm90ZWhuaWNraSBmYWt1bHRldDEZ
MBcGA1UECxQQQ0FfTWFya29NYXJrb3ZpYzELMAkGA1UEAxMCY2ExETAPBgkqhkiG
9w0BCQEWAmNhMB4XDTIxMDIxNTExMzc1M1oXDTIxMDIyNTExMzc1M1owfjELMAkG
A1UEBhMCQkExCzAJBgNVBAgTAlJTMSEwHwYDVQQKExhFbGVrdHJvdGVobmlja2kg
ZmFrdWx0ZXQxGTAXBgNVBAsUEENBX01hcmtvTWFya292aWMxDjAMBgNVBAMTBW1h
cmtvMRQwEgYJKoZIhvcNAQkBFgVtYXJrbzCCASIwDQYJKoZIhvcNAQEBBQADggEP
ADCCAQoCggEBANeAGwc5tXgbu2Cx+g4hzMe0WYNk3QmGm2REZJJFysyJmB/XikEO
3Mj6f1QgV3wBW8/ldn5FxVUCyHifeYJ+3jdm9FcAG2kqYZGZA/pATYgOHJqeUTZx
wPAJ+DQloOUhREBwq6Xb1gSlpQ6yf0wchUppl30LubJ/CH92wFBGhRstVoqZHiOO
BvB0+NFJZZhE9Z95KBRvDgsSPivSGlnd9FKWghLEecleEcKrV9NKVLD0hNE598t0
VXngYD80USsREPS/rlVdCBN6qb0cSos8H0G0vnNRt5AVOrWqeluKnB8WZ0nJQKVQ
MIXk0RuNkpygGjHjnxxqqkFzRm7hfV8pDh8CAwEAAaOB0TCBzjAJBgNVHRMEAjAA
MAsGA1UdDwQEAwIHgDATBgNVHSUEDDAKBggrBgEFBQcDAjAsBglghkgBhvhCAQ0E
HxYdT3BlblNTTCBHZW5lcmF0ZWQgQ2VydGlmaWNhdGUwHQYDVR0OBBYEFGLRVfYQ
1NO2VE72HMntbACRNxbXMB8GA1UdIwQYMBaAFGOK6THX4jynLSozq/OXjJrKPouP
MDEGA1UdHwQqMCgwJqAkoCKGIGh0dHA6Ly8xOTIuMTY4LjIxLjg5L3Jvb3Rjcmwu
cGVtMA0GCSqGSIb3DQEBBQUAA4ICAQAQDPcIReOPpRWWBFQSdRGja/Mp9S4RleWt
OXDiSYikmxajWq6wlJfcDqUil10TXXQucZIJuSdKMqHGQ0BJzk+pXMGqXnHn7Jcb
Nv9kN8tSiszoF0KNCmFemBOziJHoO8Ez0D2w4P4wHRSUAcy1qnW8UUMD+AHXKX/F
bcNJKmbWhwNknFFp6OL/CgWNJ8iJDXdJa3+zuOhuHApum/D6UadThyHSWzMlD7nD
wiTxkq8spTa3z/l2+lgSj1nBgRnCELj2D9aWWFLu6XnrXvRoVH+GAKN6d+bap1nj
z6VKZ2BZlldlPEUy2WFAyo6xq27SG79DuTHEc2Md5hxVlHBpdY2a8Qsbznd37TqV
1D5WpidNJCYCy4dKAnypPQM3o7M8fo32k9NXbDFLyCENSkE+C8nPEev0eUXFO7Lo
ZrPyJh6rhzMmB6PF+lgB1+DWL08nRiKUFRGsR4sCKPUWlNwBtF117FlPj7i+2CCi
93My0As99j9dDt56nkqCM/TlhW74FWnjejwLMuifu1e4tcS/M4HuIrsdHcN2hnq0
VF+KNxsARkl1k1jjJ8Sqth/JJyoumey50228YE9Y/XN0PInTU304UCP008F95sRy
3+3NSNrOIlfFH/g6ZROoylXoxSpl364m2wzcky8TAs0+5BEQZd6wzchLdOPoOp5o
Ocj25vxtbQ==
-----END CERTIFICATE-----
