Certificate:
    Data:
        Version: 3 (0x2)
        Serial Number: 3 (0x3)
        Signature Algorithm: sha1WithRSAEncryption
        Issuer: C=BA, ST=RS, O=Elektrotehnicki fakultet, OU=CA_MarkoMarkovic, CN=ca/emailAddress=ca
        Validity
            Not Before: Feb 15 11:47:42 2021 GMT
            Not After : Feb 25 11:47:42 2021 GMT
        Subject: C=BA, ST=RS, O=Elektrotehnicki fakultet, OU=CA_MarkoMarkovic, CN=Filip Stojakovic/emailAddress=filip
        Subject Public Key Info:
            Public Key Algorithm: rsaEncryption
                RSA Public-Key: (2048 bit)
                Modulus:
                    00:b5:ce:e2:3c:75:e5:cc:01:6f:8b:20:04:1a:f8:
                    0b:3e:6b:88:b8:22:db:7b:62:25:93:07:68:79:94:
                    48:24:ee:df:48:53:05:55:c8:33:71:42:9e:b7:9b:
                    7e:9a:f4:16:8d:27:0c:7f:23:d2:fb:1a:a6:dd:ad:
                    27:f4:7c:55:0f:b1:b0:c7:6c:b5:34:86:64:4d:db:
                    93:47:08:bd:5c:df:bb:1a:df:e5:aa:16:1d:12:0d:
                    23:8f:4e:96:dd:73:36:d9:74:48:97:16:ed:d4:62:
                    13:34:d2:1a:b3:a4:a2:da:d6:fe:8e:b3:83:81:fe:
                    95:91:90:5a:1f:33:75:ae:4c:86:5e:d2:26:77:c0:
                    76:64:43:ad:75:c9:b5:f2:3e:a1:ee:ce:e7:04:9c:
                    53:69:83:21:78:46:13:c6:9e:75:ea:dd:33:58:6d:
                    53:aa:ec:77:4f:14:18:54:5a:fe:a6:bf:fb:e4:c3:
                    a9:83:f8:6a:fd:f3:9b:4e:24:d9:42:dd:cb:ac:4e:
                    67:58:f8:8a:de:a3:48:95:45:75:45:6e:46:38:02:
                    9d:fc:74:ea:e4:e5:5f:ab:b2:fd:2c:a4:ff:56:17:
                    51:2e:6d:fb:3a:3a:3b:6a:42:26:8b:d9:ca:c2:a7:
                    eb:ba:fd:e1:9e:0b:f2:8a:ab:6f:d8:b4:2d:18:eb:
                    f7:5d
                Exponent: 65537 (0x10001)
        X509v3 extensions:
            X509v3 Basic Constraints: 
                CA:FALSE
            X509v3 Key Usage: 
                Digital Signature
            X509v3 Extended Key Usage: 
                TLS Web Client Authentication
            Netscape Comment: 
                OpenSSL Generated Certificate
            X509v3 Subject Key Identifier: 
                CC:04:44:39:9E:0E:0B:71:8C:79:9C:2E:84:7B:45:32:45:97:65:34
            X509v3 Authority Key Identifier: 
                keyid:63:8A:E9:31:D7:E2:3C:A7:2D:2A:33:AB:F3:97:8C:9A:CA:3E:8B:8F

            X509v3 CRL Distribution Points: 

                Full Name:
                  URI:http://192.168.21.89/rootcrl.pem

    Signature Algorithm: sha1WithRSAEncryption
         1f:3f:79:3b:05:57:78:54:b6:6a:e4:fe:e2:40:60:ca:7c:a4:
         8d:47:e3:b0:e2:9c:23:09:81:e8:95:e3:ae:7a:be:41:5d:3e:
         15:54:17:e0:b2:be:4f:6e:70:9b:3f:fc:cc:82:30:e3:5f:bf:
         5e:39:70:c6:4d:89:71:64:30:66:8f:77:e1:94:4b:f8:49:a4:
         0a:5d:69:a6:1c:79:ce:3d:70:a1:df:c4:ac:e8:8a:8f:c5:8a:
         6f:fe:9e:d7:31:89:8f:75:96:52:04:ef:96:70:9b:e5:04:c3:
         ee:ca:7f:c1:f8:2b:2f:70:42:86:c1:e9:00:de:cf:53:67:f3:
         fa:07:ea:21:43:94:83:d5:7a:a2:69:df:33:6a:d6:9b:3e:af:
         3e:3d:00:e0:e5:74:a4:41:60:1f:97:bf:b7:42:ec:dc:ad:d3:
         80:68:64:2a:9d:80:94:80:1f:78:f8:0e:2a:53:ef:b0:70:a9:
         24:1f:5d:ad:24:ac:97:54:cc:af:ef:ed:f5:5d:86:33:a2:c1:
         1f:23:bb:02:06:71:57:41:28:47:48:92:e3:61:75:7e:24:39:
         2b:24:0b:60:a6:fe:b7:4b:55:ef:0c:a7:6a:93:57:5a:7e:6c:
         e0:f0:a7:cd:34:19:20:de:d5:15:e6:c2:b8:2c:b7:7f:5c:26:
         e9:7d:d3:92:50:70:fa:3c:37:49:91:c1:c5:bc:e6:87:89:77:
         25:f9:e6:da:b8:69:6d:7a:49:3f:fb:82:a0:57:73:42:3f:8c:
         49:81:72:09:d9:5b:3a:76:5f:a5:9c:c6:9f:f0:f1:c9:d8:38:
         ab:75:2a:d7:45:63:dc:7c:ec:c1:a1:eb:23:bf:51:4b:09:a9:
         71:2c:80:c9:82:a9:cb:b4:57:31:37:74:4d:34:07:85:b0:6c:
         7d:69:36:53:52:6c:87:e9:62:02:39:d3:7e:e4:da:47:76:bb:
         69:9b:5f:19:b5:14:07:91:f6:c1:d2:89:39:8e:c7:c3:ab:26:
         3b:7f:dd:8d:ac:71:a6:36:91:8e:fa:78:1c:bc:19:49:a7:b2:
         14:28:e8:05:80:b8:88:63:e9:4f:aa:88:1f:3b:50:4b:ca:a9:
         8c:29:3e:55:e0:16:8b:ed:23:26:bd:f6:e7:85:33:e6:7a:de:
         1a:d3:b9:9c:dc:45:46:d8:21:92:3d:4c:65:4d:12:45:a8:33:
         15:70:ef:a4:9a:83:06:4d:46:eb:10:65:d8:dd:1f:d6:08:88:
         45:7e:6a:da:47:8a:3b:ef:2b:8a:4f:38:cd:cb:4c:f9:88:83:
         ef:f1:a1:25:38:5c:9a:9c:ce:ac:ac:7b:93:68:f4:e2:2e:ce:
         31:33:fb:1d:5d:f6:be:34
-----BEGIN CERTIFICATE-----
MIIFTzCCAzegAwIBAgIBAzANBgkqhkiG9w0BAQUFADB4MQswCQYDVQQGEwJCQTEL
MAkGA1UECBMCUlMxITAfBgNVBAoTGEVsZWt0cm90ZWhuaWNraSBmYWt1bHRldDEZ
MBcGA1UECxQQQ0FfTWFya29NYXJrb3ZpYzELMAkGA1UEAxMCY2ExETAPBgkqhkiG
9w0BCQEWAmNhMB4XDTIxMDIxNTExNDc0MloXDTIxMDIyNTExNDc0MlowgYkxCzAJ
BgNVBAYTAkJBMQswCQYDVQQIEwJSUzEhMB8GA1UEChMYRWxla3Ryb3RlaG5pY2tp
IGZha3VsdGV0MRkwFwYDVQQLFBBDQV9NYXJrb01hcmtvdmljMRkwFwYDVQQDExBG
aWxpcCBTdG9qYWtvdmljMRQwEgYJKoZIhvcNAQkBFgVmaWxpcDCCASIwDQYJKoZI
hvcNAQEBBQADggEPADCCAQoCggEBALXO4jx15cwBb4sgBBr4Cz5riLgi23tiJZMH
aHmUSCTu30hTBVXIM3FCnrebfpr0Fo0nDH8j0vsapt2tJ/R8VQ+xsMdstTSGZE3b
k0cIvVzfuxrf5aoWHRINI49Olt1zNtl0SJcW7dRiEzTSGrOkotrW/o6zg4H+lZGQ
Wh8zda5Mhl7SJnfAdmRDrXXJtfI+oe7O5wScU2mDIXhGE8aederdM1htU6rsd08U
GFRa/qa/++TDqYP4av3zm04k2ULdy6xOZ1j4it6jSJVFdUVuRjgCnfx06uTlX6uy
/Syk/1YXUS5t+zo6O2pCJovZysKn67r94Z4L8oqrb9i0LRjr910CAwEAAaOB0TCB
zjAJBgNVHRMEAjAAMAsGA1UdDwQEAwIHgDATBgNVHSUEDDAKBggrBgEFBQcDAjAs
BglghkgBhvhCAQ0EHxYdT3BlblNTTCBHZW5lcmF0ZWQgQ2VydGlmaWNhdGUwHQYD
VR0OBBYEFMwERDmeDgtxjHmcLoR7RTJFl2U0MB8GA1UdIwQYMBaAFGOK6THX4jyn
LSozq/OXjJrKPouPMDEGA1UdHwQqMCgwJqAkoCKGIGh0dHA6Ly8xOTIuMTY4LjIx
Ljg5L3Jvb3RjcmwucGVtMA0GCSqGSIb3DQEBBQUAA4ICAQAfP3k7BVd4VLZq5P7i
QGDKfKSNR+Ow4pwjCYHoleOuer5BXT4VVBfgsr5PbnCbP/zMgjDjX79eOXDGTYlx
ZDBmj3fhlEv4SaQKXWmmHHnOPXCh38Ss6IqPxYpv/p7XMYmPdZZSBO+WcJvlBMPu
yn/B+CsvcEKGwekA3s9TZ/P6B+ohQ5SD1Xqiad8zatabPq8+PQDg5XSkQWAfl7+3
QuzcrdOAaGQqnYCUgB94+A4qU++wcKkkH12tJKyXVMyv7+31XYYzosEfI7sCBnFX
QShHSJLjYXV+JDkrJAtgpv63S1XvDKdqk1dafmzg8KfNNBkg3tUV5sK4LLd/XCbp
fdOSUHD6PDdJkcHFvOaHiXcl+ebauGltekk/+4KgV3NCP4xJgXIJ2Vs6dl+lnMaf
8PHJ2DirdSrXRWPcfOzBoesjv1FLCalxLIDJgqnLtFcxN3RNNAeFsGx9aTZTUmyH
6WICOdN+5NpHdrtpm18ZtRQHkfbB0ok5jsfDqyY7f92NrHGmNpGO+ngcvBlJp7IU
KOgFgLiIY+lPqogfO1BLyqmMKT5V4BaL7SMmvfbnhTPmet4a07mc3EVG2CGSPUxl
TRJFqDMVcO+kmoMGTUbrEGXY3R/WCIhFfmraR4o77yuKTzjNy0z5iIPv8aElOFya
nM6srHuTaPTiLs4xM/sdXfa+NA==
-----END CERTIFICATE-----
