Certificate:
    Data:
        Version: 3 (0x2)
        Serial Number: 1 (0x1)
        Signature Algorithm: sha1WithRSAEncryption
        Issuer: C=BA, ST=RS, O=Elektrotehnicki fakultet, OU=CA_MarkoMarkovic, CN=ca/emailAddress=ca
        Validity
            Not Before: Feb 15 11:35:01 2021 GMT
            Not After : Feb 25 11:35:01 2021 GMT
        Subject: C=BA, ST=RS, O=Elektrotehnicki fakultet, OU=CA_MarkoMarkovic, CN=ca/emailAddress=ca
        Subject Public Key Info:
            Public Key Algorithm: rsaEncryption
                RSA Public-Key: (4096 bit)
                Modulus:
                    00:a4:84:37:80:87:fa:85:46:4f:f3:e4:bd:d3:1b:
                    bd:75:a5:c6:e4:5c:24:bd:eb:12:e3:91:49:0a:be:
                    99:d3:73:f9:bf:49:f5:49:ca:59:f6:ba:2d:5a:20:
                    50:5e:ea:03:8f:30:4d:60:a4:f3:de:c2:b0:04:c6:
                    c6:83:ef:2b:74:cd:e9:11:cf:7d:48:51:10:02:01:
                    ad:f8:96:84:4c:7e:ef:c0:ed:c6:1f:a6:2d:c0:5a:
                    97:01:95:b6:62:5d:46:ee:62:fa:18:aa:d3:6a:36:
                    a7:ed:92:7b:22:08:d9:5c:cb:1f:ed:ae:54:a1:b7:
                    bc:31:f3:a3:9c:5b:3f:3b:79:fe:b7:86:d7:c7:f2:
                    41:b2:aa:46:f1:69:3b:47:25:b3:1f:64:ce:ee:8a:
                    93:12:06:42:29:ba:9b:b4:8b:c2:30:5d:7d:c5:03:
                    a4:94:e8:fd:26:10:68:49:6e:61:43:4a:cd:76:2f:
                    b7:c4:e3:dc:d5:62:3e:c9:0b:e8:d8:69:ec:b0:71:
                    3c:a8:4a:d1:23:d0:48:91:fc:39:4a:71:95:8b:c6:
                    ef:0a:50:65:0e:aa:29:5f:20:be:65:15:b5:67:00:
                    b2:ca:f0:be:81:6b:4e:eb:a4:c6:32:65:36:51:d5:
                    00:46:19:8b:81:fd:42:12:90:f4:66:6a:41:76:41:
                    6b:f0:d8:13:3a:07:a2:cd:6f:28:c7:94:41:d9:6b:
                    90:b6:14:02:fa:a6:95:ce:e2:90:72:d6:f0:91:a7:
                    0a:c4:82:7f:88:6a:c7:2e:ea:73:44:c0:ba:86:36:
                    22:81:c7:61:e1:84:64:d4:a0:6f:f7:b6:4b:71:20:
                    0c:cb:7f:dd:d8:a0:cf:2a:21:b6:43:43:5f:00:14:
                    be:51:ae:8b:42:d4:d5:c1:ca:44:ed:35:ba:fd:b2:
                    5c:25:d4:98:54:46:47:6c:69:e0:d2:ed:42:16:bf:
                    b7:54:9f:84:06:71:b2:d8:a1:14:8a:eb:52:c7:c6:
                    9c:e3:ab:13:d0:2c:f8:ff:c8:f6:1f:25:f4:c6:0b:
                    e3:9a:86:f9:a2:cb:3d:37:79:f3:cf:57:bb:89:85:
                    20:b3:00:4c:ca:fe:81:ca:43:8c:a6:53:ed:6c:f8:
                    00:35:97:f8:7c:59:aa:f7:d1:0a:82:08:0e:56:09:
                    f9:9a:8e:57:bd:d8:35:8c:c2:0e:18:b4:72:bd:ca:
                    18:52:0d:9f:53:ed:08:a3:93:3c:a3:6d:04:f0:13:
                    2e:4d:36:51:97:cc:d9:66:d5:99:16:40:27:d8:82:
                    7b:ef:29:1f:9f:61:88:ea:dc:95:de:9d:55:59:0c:
                    5a:67:87:d3:93:06:ef:a5:a9:95:16:29:66:0f:24:
                    32:d7:9d
                Exponent: 65537 (0x10001)
        X509v3 extensions:
            X509v3 Basic Constraints: 
                CA:FALSE
            X509v3 Key Usage: 
                Digital Signature
            X509v3 Extended Key Usage: 
                TLS Web Client Authentication
            Netscape Comment: 
                OpenSSL Generated Certificate
            X509v3 Subject Key Identifier: 
                63:8A:E9:31:D7:E2:3C:A7:2D:2A:33:AB:F3:97:8C:9A:CA:3E:8B:8F
            X509v3 Authority Key Identifier: 
                keyid:63:8A:E9:31:D7:E2:3C:A7:2D:2A:33:AB:F3:97:8C:9A:CA:3E:8B:8F

            X509v3 CRL Distribution Points: 

                Full Name:
                  URI:http://192.168.21.89/rootcrl.pem

    Signature Algorithm: sha1WithRSAEncryption
         23:2d:68:4d:97:c0:c6:15:d9:b8:de:df:ff:86:77:4d:c9:cb:
         57:86:57:51:27:06:41:a0:0d:ca:de:e4:54:63:8c:16:7f:59:
         9e:fc:66:55:b1:0a:13:e3:17:a8:02:a0:72:18:e7:1f:9c:b6:
         4c:36:fe:51:44:3c:c6:08:e0:6d:cd:61:64:5d:43:f1:66:dc:
         75:1e:9f:43:e4:dc:10:28:2d:e9:e6:8b:b1:8d:a9:ec:06:f7:
         7d:7e:7e:cc:22:fe:01:c2:93:f5:87:a4:14:80:98:72:58:a1:
         db:6e:25:86:09:f8:0c:3d:ea:97:9b:a5:e4:20:f0:9e:c6:5a:
         76:7d:80:d2:e2:9b:c0:c1:05:24:bb:8d:12:2f:b4:49:be:63:
         3f:53:6b:a4:83:f0:76:25:68:a9:a0:cd:e6:03:a8:f9:1a:9c:
         a2:10:99:86:3b:74:da:09:1b:29:b6:36:f3:99:fa:31:0f:0e:
         61:8a:bc:24:7c:e7:50:c4:f1:ca:1f:73:86:41:e0:27:e3:dc:
         c4:84:c5:e2:1a:db:89:a7:8d:31:8b:db:13:b3:ab:e6:26:a4:
         0f:2e:77:15:fc:8a:f3:ab:dc:9e:77:0d:6b:62:67:b4:69:5e:
         32:0a:cf:7d:b7:3b:3f:9f:82:af:25:c8:a3:17:44:e5:e6:1c:
         05:4c:cc:46:f4:30:a0:b5:6b:d9:ee:cf:7a:82:bd:7e:26:a9:
         f5:0c:db:67:56:ce:22:c2:03:bf:6e:73:d6:41:89:68:ec:69:
         2b:4c:e1:2d:88:ad:c6:d2:2d:3d:51:02:8d:0b:4f:6d:5c:ce:
         fc:1c:c3:ce:d4:30:95:d3:f1:15:2b:f2:9d:01:50:b7:2a:31:
         c5:46:ce:f1:90:ed:76:da:8a:48:79:bc:88:60:73:b8:18:be:
         71:db:82:66:33:f2:3f:23:41:33:ba:7d:11:76:f7:23:3b:53:
         ca:fe:5d:37:09:da:64:e4:8e:89:38:56:e5:9d:08:70:a3:1f:
         95:03:41:fa:99:db:ea:07:e6:7a:33:21:81:74:4b:e5:5d:10:
         ac:0a:38:62:d6:0a:c8:75:13:c4:83:86:09:ea:d7:72:07:98:
         e5:17:9f:b6:38:fa:a0:bf:23:ed:6b:e3:c2:a8:c0:dd:f2:1c:
         5c:8c:d3:3f:58:9d:ba:ed:53:62:81:29:8e:b2:37:68:98:16:
         9b:8a:cc:05:53:66:d4:96:be:da:36:b6:77:64:e9:95:60:0d:
         36:38:de:de:51:bb:02:79:95:b2:7c:44:f1:57:33:ae:c5:6b:
         3f:96:40:e2:50:7f:53:f9:e8:57:56:af:39:85:7e:e9:c1:08:
         a5:ea:e8:3d:bc:ac:dd:2b
-----BEGIN CERTIFICATE-----
MIIGPTCCBCWgAwIBAgIBATANBgkqhkiG9w0BAQUFADB4MQswCQYDVQQGEwJCQTEL
MAkGA1UECBMCUlMxITAfBgNVBAoTGEVsZWt0cm90ZWhuaWNraSBmYWt1bHRldDEZ
MBcGA1UECxQQQ0FfTWFya29NYXJrb3ZpYzELMAkGA1UEAxMCY2ExETAPBgkqhkiG
9w0BCQEWAmNhMB4XDTIxMDIxNTExMzUwMVoXDTIxMDIyNTExMzUwMVoweDELMAkG
A1UEBhMCQkExCzAJBgNVBAgTAlJTMSEwHwYDVQQKExhFbGVrdHJvdGVobmlja2kg
ZmFrdWx0ZXQxGTAXBgNVBAsUEENBX01hcmtvTWFya292aWMxCzAJBgNVBAMTAmNh
MREwDwYJKoZIhvcNAQkBFgJjYTCCAiIwDQYJKoZIhvcNAQEBBQADggIPADCCAgoC
ggIBAKSEN4CH+oVGT/PkvdMbvXWlxuRcJL3rEuORSQq+mdNz+b9J9UnKWfa6LVog
UF7qA48wTWCk897CsATGxoPvK3TN6RHPfUhREAIBrfiWhEx+78Dtxh+mLcBalwGV
tmJdRu5i+hiq02o2p+2SeyII2VzLH+2uVKG3vDHzo5xbPzt5/reG18fyQbKqRvFp
O0clsx9kzu6KkxIGQim6m7SLwjBdfcUDpJTo/SYQaEluYUNKzXYvt8Tj3NViPskL
6Nhp7LBxPKhK0SPQSJH8OUpxlYvG7wpQZQ6qKV8gvmUVtWcAssrwvoFrTuukxjJl
NlHVAEYZi4H9QhKQ9GZqQXZBa/DYEzoHos1vKMeUQdlrkLYUAvqmlc7ikHLW8JGn
CsSCf4hqxy7qc0TAuoY2IoHHYeGEZNSgb/e2S3EgDMt/3digzyohtkNDXwAUvlGu
i0LU1cHKRO01uv2yXCXUmFRGR2xp4NLtQha/t1SfhAZxstihFIrrUsfGnOOrE9As
+P/I9h8l9MYL45qG+aLLPTd5889Xu4mFILMATMr+gcpDjKZT7Wz4ADWX+HxZqvfR
CoIIDlYJ+ZqOV73YNYzCDhi0cr3KGFINn1PtCKOTPKNtBPATLk02UZfM2WbVmRZA
J9iCe+8pH59hiOrcld6dVVkMWmeH05MG76WplRYpZg8kMtedAgMBAAGjgdEwgc4w
CQYDVR0TBAIwADALBgNVHQ8EBAMCB4AwEwYDVR0lBAwwCgYIKwYBBQUHAwIwLAYJ
YIZIAYb4QgENBB8WHU9wZW5TU0wgR2VuZXJhdGVkIENlcnRpZmljYXRlMB0GA1Ud
DgQWBBRjiukx1+I8py0qM6vzl4yayj6LjzAfBgNVHSMEGDAWgBRjiukx1+I8py0q
M6vzl4yayj6LjzAxBgNVHR8EKjAoMCagJKAihiBodHRwOi8vMTkyLjE2OC4yMS44
OS9yb290Y3JsLnBlbTANBgkqhkiG9w0BAQUFAAOCAgEAIy1oTZfAxhXZuN7f/4Z3
TcnLV4ZXUScGQaANyt7kVGOMFn9ZnvxmVbEKE+MXqAKgchjnH5y2TDb+UUQ8xgjg
bc1hZF1D8WbcdR6fQ+TcECgt6eaLsY2p7Ab3fX5+zCL+AcKT9YekFICYclih224l
hgn4DD3ql5ul5CDwnsZadn2A0uKbwMEFJLuNEi+0Sb5jP1NrpIPwdiVoqaDN5gOo
+RqcohCZhjt02gkbKbY285n6MQ8OYYq8JHznUMTxyh9zhkHgJ+PcxITF4hrbiaeN
MYvbE7Or5iakDy53FfyK86vcnncNa2JntGleMgrPfbc7P5+CryXIoxdE5eYcBUzM
RvQwoLVr2e7PeoK9fiap9QzbZ1bOIsIDv25z1kGJaOxpK0zhLYitxtItPVECjQtP
bVzO/BzDztQwldPxFSvynQFQtyoxxUbO8ZDtdtqKSHm8iGBzuBi+cduCZjPyPyNB
M7p9EXb3IztTyv5dNwnaZOSOiThW5Z0IcKMflQNB+pnb6gfmejMhgXRL5V0QrAo4
YtYKyHUTxIOGCerXcgeY5Reftjj6oL8j7WvjwqjA3fIcXIzTP1iduu1TYoEpjrI3
aJgWm4rMBVNm1Ja+2ja2d2TplWANNjje3lG7AnmVsnxE8VczrsVrP5ZA4lB/U/no
V1avOYV+6cEIperoPbys3Ss=
-----END CERTIFICATE-----
